target datalayout = "e-m:e-p270:32:32-p271:32:32-p272:64:64-i64:64-i128:128-f80:128-n8:16:32:64-S128"
target triple = "x86_64-pc-linux-gnu"

; Function Attrs: nounwind uwtable
define ptr @cli_jsonarray(ptr noundef %0, ptr noundef %1) #0 {
  %3 = alloca ptr, align 8
  %4 = alloca ptr, align 8
  %5 = alloca ptr, align 8
  %6 = alloca i32, align 4
  %7 = alloca ptr, align 8
  store ptr %0, ptr %4, align 8
  store ptr %1, ptr %5, align 8
  %8 = load ptr, ptr %4, align 8
  %9 = icmp ne ptr %8, null
  br i1 %9, label %10, label %27

10:                                               ; preds = %2
  %11 = load ptr, ptr %5, align 8
  %12 = icmp ne ptr %11, null
  br i1 %12, label %13, label %27

13:                                               ; preds = %10
  %14 = load ptr, ptr %4, align 8
  %15 = load ptr, ptr %5, align 8
  %16 = call i32 @json_object_object_get_ex(ptr noundef %14, ptr noundef %15, ptr noundef %7)
  %17 = icmp ne i32 %16, 0
  br i1 %17, label %18, label %27

18:                                               ; preds = %13
  %19 = load ptr, ptr %7, align 8
  %20 = call i32 @json_object_is_type(ptr noundef %19, i32 noundef 5)
  %21 = icmp ne i32 %20, 0
  br i1 %21, label %22, label %24

22:                                               ; preds = %18
  %23 = load ptr, ptr %7, align 8
  br label %25

24:                                               ; preds = %18
  br label %25

25:                                               ; preds = %24, %22
  %26 = phi ptr [ %23, %22 ], [ null, %24 ]
  store ptr %26, ptr %3, align 8
  br label %65

27:                                               ; preds = %13, %10, %2
  %28 = call ptr @json_object_new_array()
  store ptr %28, ptr %7, align 8
  %29 = load ptr, ptr %7, align 8
  %30 = icmp ne ptr %29, null
  br i1 %30, label %32, label %31

31:                                               ; preds = %27
  store ptr null, ptr %3, align 8
  br label %65

32:                                               ; preds = %27
  %33 = load ptr, ptr %4, align 8
  %34 = icmp ne ptr %33, null
  br i1 %34, label %35, label %63

35:                                               ; preds = %32
  %36 = load ptr, ptr %4, align 8
  %37 = call i32 @json_object_get_type(ptr noundef %36)
  store i32 %37, ptr %6, align 4
  %38 = load ptr, ptr %5, align 8
  %39 = icmp ne ptr %38, null
  br i1 %39, label %40, label %54

40:                                               ; preds = %35
  %41 = load i32, ptr %6, align 4
  %42 = icmp eq i32 %41, 4
  br i1 %42, label %43, label %54

43:                                               ; preds = %40
  %44 = load ptr, ptr %4, align 8
  %45 = load ptr, ptr %5, align 8
  %46 = load ptr, ptr %7, align 8
  %47 = call i32 @json_object_object_add(ptr noundef %44, ptr noundef %45, ptr noundef %46)
  %48 = load ptr, ptr %4, align 8
  %49 = load ptr, ptr %5, align 8
  %50 = call i32 @json_object_object_get_ex(ptr noundef %48, ptr noundef %49, ptr noundef %7)
  %51 = icmp ne i32 %50, 0
  br i1 %51, label %53, label %52

52:                                               ; preds = %43
  store ptr null, ptr %3, align 8
  br label %65

53:                                               ; preds = %43
  br label %62

54:                                               ; preds = %40, %35
  %55 = load i32, ptr %6, align 4
  %56 = icmp eq i32 %55, 5
  br i1 %56, label %57, label %61

57:                                               ; preds = %54
  %58 = load ptr, ptr %4, align 8
  %59 = load ptr, ptr %7, align 8
  %60 = call i32 @json_object_array_add(ptr noundef %58, ptr noundef %59)
  br label %61

61:                                               ; preds = %57, %54
  br label %62

62:                                               ; preds = %61, %53
  br label %63

63:                                               ; preds = %62, %32
  %64 = load ptr, ptr %7, align 8
  store ptr %64, ptr %3, align 8
  br label %65

65:                                               ; preds = %63, %52, %31, %25
  %66 = load ptr, ptr %3, align 8
  ret ptr %66
}