; Function Attrs: nounwind uwtable
define ptr @cli_jsonarray(ptr noundef %0, ptr noundef %1) local_unnamed_addr #0 {
  %3 = alloca ptr, align 8
  %4 = icmp ne ptr %0, null
  %5 = icmp ne ptr %1, null
  %or.cond = and i1 %4, %5
  br i1 %or.cond, label %6, label %13

6:                                                ; preds = %2
  %7 = call i32 @json_object_object_get_ex(ptr noundef nonnull %0, ptr noundef nonnull %1, ptr noundef nonnull %3) #2
  %.not = icmp eq i32 %7, 0
  br i1 %.not, label %13, label %8

8:                                                ; preds = %6
  %9 = load ptr, ptr %3, align 8
  %10 = call i32 @json_object_is_type(ptr noundef %9, i32 noundef 5) #2
  %.not22 = icmp eq i32 %10, 0
  %11 = load ptr, ptr %3, align 8
  %12 = select i1 %.not22, ptr null, ptr %11
  br label %30

13:                                               ; preds = %6, %2
  %14 = call ptr @json_object_new_array() #2
  store ptr %14, ptr %3, align 8
  %.not20 = icmp eq ptr %14, null
  br i1 %.not20, label %30, label %15

15:                                               ; preds = %13
  br i1 %4, label %16, label %28

16:                                               ; preds = %15
  %17 = call i32 @json_object_get_type(ptr noundef nonnull %0) #2
  %18 = icmp eq i32 %17, 4
  %or.cond3 = select i1 %5, i1 %18, i1 false
  br i1 %or.cond3, label %19, label %23

19:                                               ; preds = %16
  %20 = load ptr, ptr %3, align 8
  %21 = call i32 @json_object_object_add(ptr noundef nonnull %0, ptr noundef nonnull %1, ptr noundef %20) #2
  %22 = call i32 @json_object_object_get_ex(ptr noundef nonnull %0, ptr noundef nonnull %1, ptr noundef nonnull %3) #2
  %.not21 = icmp eq i32 %22, 0
  br i1 %.not21, label %30, label %28

23:                                               ; preds = %16
  %24 = icmp eq i32 %17, 5
  br i1 %24, label %25, label %28

25:                                               ; preds = %23
  %26 = load ptr, ptr %3, align 8
  %27 = call i32 @json_object_array_add(ptr noundef nonnull %0, ptr noundef %26) #2
  br label %28

28:                                               ; preds = %19, %25, %23, %15
  %29 = load ptr, ptr %3, align 8
  br label %30

30:                                               ; preds = %19, %13, %28, %8
  %.0 = phi ptr [ %12, %8 ], [ %29, %28 ], [ null, %13 ], [ null, %19 ]
  ret ptr %.0
}